target datalayout = "e-m:e-p270:32:32-p271:32:32-p272:64:64-i64:64-i128:128-f80:128-n8:16:32:64-S128"
target triple = "x86_64-pc-linux-gnu"

@hf_lcp_opt_mrru = internal global i32 0, align 4
@ett_lcp_multilink_mrru_opt = internal global i32 0, align 4
@proto_lcp_option_multilink_mrru = internal global i32 0, align 4
@.str.1317 = private unnamed_addr constant [5 x i8] c": %u\00", align 1

; Function Attrs: null_pointer_is_valid sspstrong uwtable
define internal i32 @dissect_lcp_multilink_mrru_opt(ptr noundef %0, ptr noundef %1, ptr noundef %2, ptr noundef %3) #1 {
  %5 = alloca i32, align 4
  %6 = alloca ptr, align 8
  %7 = alloca ptr, align 8
  %8 = alloca ptr, align 8
  %9 = alloca ptr, align 8
  %10 = alloca ptr, align 8
  %11 = alloca ptr, align 8
  %12 = alloca i32, align 4
  %13 = alloca i32, align 4
  %14 = alloca i32, align 4
  store ptr %0, ptr %6, align 8
  store ptr %1, ptr %7, align 8
  store ptr %2, ptr %8, align 8
  store ptr %3, ptr %9, align 8
  call void @llvm.lifetime.start.p0(i64 8, ptr %10) #6
  call void @llvm.lifetime.start.p0(i64 8, ptr %11) #6
  call void @llvm.lifetime.start.p0(i64 4, ptr %12) #6
  call void @llvm.lifetime.start.p0(i64 4, ptr %13) #6
  store i32 0, ptr %13, align 4
  %15 = load ptr, ptr %6, align 8
  %16 = load ptr, ptr %7, align 8
  %17 = load ptr, ptr %8, align 8
  %18 = load i32, ptr @proto_lcp_option_multilink_mrru, align 4
  %19 = load i32, ptr @ett_lcp_multilink_mrru_opt, align 4
  %20 = call zeroext i1 @dissect_lcp_fixed_opt(ptr noundef %15, ptr noundef %16, ptr noundef %17, i32 noundef %18, i32 noundef %19, i32 noundef 4, ptr noundef %10, ptr noundef %11)
  br i1 %20, label %24, label %21

21:                                               ; preds = %4
  %22 = load ptr, ptr %6, align 8
  %23 = call i32 @tvb_captured_length(ptr noundef %22)
  store i32 %23, ptr %5, align 4
  store i32 1, ptr %14, align 4
  br label %35

24:                                               ; preds = %4
  %25 = load ptr, ptr %10, align 8
  %26 = load i32, ptr @hf_lcp_opt_mrru, align 4
  %27 = load ptr, ptr %6, align 8
  %28 = load i32, ptr %13, align 4
  %29 = add i32 %28, 2
  %30 = call ptr @proto_tree_add_item_ret_uint(ptr noundef %25, i32 noundef %26, ptr noundef %27, i32 noundef %29, i32 noundef 2, i32 noundef 0, ptr noundef %12)
  %31 = load ptr, ptr %11, align 8
  %32 = load i32, ptr %12, align 4
  call void (ptr, ptr, ...) @proto_item_append_text(ptr noundef %31, ptr noundef @.str.1317, i32 noundef %32)
  %33 = load ptr, ptr %6, align 8
  %34 = call i32 @tvb_captured_length(ptr noundef %33)
  store i32 %34, ptr %5, align 4
  store i32 1, ptr %14, align 4
  br label %35

35:                                               ; preds = %24, %21
  call void @llvm.lifetime.end.p0(i64 4, ptr %13) #6
  call void @llvm.lifetime.end.p0(i64 4, ptr %12) #6
  call void @llvm.lifetime.end.p0(i64 8, ptr %11) #6
  call void @llvm.lifetime.end.p0(i64 8, ptr %10) #6
  %36 = load i32, ptr %5, align 4
  ret i32 %36
}